(lp0
(lp1
F0.1587933897972107
aF-0.12725017964839935
aF0.4345434308052063
aF1.46550452709198
aF-0.10917951166629791
aF0.5120817422866821
aa(lp2
F0.16155014655396746
aF-0.12593767964839936
aF0.4345434308052063
aF1.46550452709198
aF-0.10917951166629791
aF0.5120817422866821
aa(lp3
F0.16625284925667017
aF-0.12462517964839936
aF0.4345434308052063
aF1.46550452709198
aF-0.10917951166629791
aF0.5120817422866821
aa(lp4
F0.17046906547288637
aF-0.12331267964839936
aF0.4345434308052063
aF1.46550452709198
aF-0.10917951166629791
aF0.5120817422866821
aa(lp5
F0.17403663304045394
aF-0.12275017964839935
aF0.4345434308052063
aF1.46550452709198
aF-0.10917951166629791
aF0.5120817422866821
aa(lp6
F0.1750096060134269
aF-0.13831267964839936
aF0.4345434308052063
aF1.46550452709198
aF-0.10917951166629791
aF0.5120817422866821
aa(lp7
F0.17484744385126474
aF-0.14281267964839936
aF0.4345434308052063
aF1.46550452709198
aF-0.10917951166629791
aF0.5120817422866821
aa(lp8
F0.17873933574315665
aF-0.12106267964839935
aF0.4345434308052063
aF1.46550452709198
aF-0.10917951166629791
aF0.5120817422866821
aa(lp9
F0.18392852493234582
aF-0.11993767964839935
aF0.4345434308052063
aF1.46550452709198
aF-0.10917951166629791
aF0.5120817422866821
aa(lp10
F0.1883069033107242
aF-0.11862517964839936
aF0.4345434308052063
aF1.46550452709198
aF-0.10917951166629791
aF0.5120817422866821
aa(lp11
F0.19236095736477826
aF-0.11675017964839934
aF0.4345434308052063
aF1.46550452709198
aF-0.10917951166629791
aF0.5120817422866821
aa(lp12
F0.196090687094508
aF-0.11318767964839935
aF0.4345434308052063
aF1.46550452709198
aF-0.10917951166629791
aF0.5120817422866821
aa(lp13
F0.19236095736477826
aF-0.11018767964839936
aF0.4345434308052063
aF1.46550452709198
aF-0.10917951166629791
aF0.5120817422866821
aa(lp14
F0.18846906547288636
aF-0.10887517964839935
aF0.4345434308052063
aF1.46550452709198
aF-0.10917951166629791
aF0.5120817422866821
aa(lp15
F0.18457717358099446
aF-0.10700017964839935
aF0.4345434308052063
aF1.46550452709198
aF-0.10917951166629791
aF0.5120817422866821
aa(lp16
F0.18036095736477825
aF-0.10550017964839936
aF0.4345434308052063
aF1.46550452709198
aF-0.10917951166629791
aF0.5120817422866821
aa(lp17
F0.17646906547288638
aF-0.10400017964839936
aF0.4345434308052063
aF1.46550452709198
aF-0.10917951166629791
aF0.5120817422866821
aa(lp18
F0.1729014979053188
aF-0.10156267964839935
aF0.4345434308052063
aF1.46550452709198
aF-0.10917951166629791
aF0.5120817422866821
aa(lp19
F0.17387447087829178
aF-0.09256267964839936
aF0.4345434308052063
aF1.46550452709198
aF-0.10917951166629791
aF0.5120817422866821
aa(lp20
F0.1732258222296431
aF-0.08937517964839936
aF0.4345434308052063
aF1.46550452709198
aF-0.10917951166629791
aF0.5120817422866821
aa(lp21
F0.16998257898639987
aF-0.10250017964839936
aF0.4345434308052063
aF1.46550452709198
aF-0.10917951166629791
aF0.5120817422866821
aa(lp22
F0.16576636277018367
aF-0.10081267964839935
aF0.4345434308052063
aF1.46550452709198
aF-0.10917951166629791
aF0.5120817422866821
aa(lp23
F0.16236095736477826
aF-0.09950017964839936
aF0.4345434308052063
aF1.46550452709198
aF-0.10917951166629791
aF0.5120817422866821
aa(lp24
F0.1592798762836972
aF-0.09875017964839936
aF0.4345434308052063
aF1.46550452709198
aF-0.10917951166629791
aF0.5120817422866821
aa(lp25
F0.1741987952026161
aF-0.10868767964839936
aF0.4345434308052063
aF1.46550452709198
aF-0.10917951166629791
aF0.5120817422866821
aa(lp26
F0.17436095736477825
aF-0.11262517964839935
aF0.4345434308052063
aF1.46550452709198
aF-0.10917951166629791
aF0.5120817422866821
aa.