(lp0
(lp1
F0.16054080426692963
aF-0.11701429635286331
aF0.4346798360347748
aF1.460657000541687
aF-0.10623437911272049
aF0.5849809050559998
aa(lp2
F0.16464891237503773
aF-0.11601429635286331
aF0.4346798360347748
aF1.460657000541687
aF-0.10623437911272049
aF0.5849809050559998
aa(lp3
F0.16789215561828097
aF-0.11476429635286331
aF0.4346798360347748
aF1.460657000541687
aF-0.10623437911272049
aF0.5849809050559998
aa(lp4
F0.17329756102368638
aF-0.11376429635286331
aF0.4346798360347748
aF1.460657000541687
aF-0.10623437911272049
aF0.5849809050559998
aa(lp5
F0.17675702048314584
aF-0.11276429635286331
aF0.4346798360347748
aF1.460657000541687
aF-0.10623437911272049
aF0.5849809050559998
aa(lp6
F0.18259485832098368
aF-0.11351429635286331
aF0.4346798360347748
aF1.460657000541687
aF-0.10623437911272049
aF0.5849809050559998
aa(lp7
F0.18302729075341612
aF-0.11801429635286331
aF0.4346798360347748
aF1.460657000541687
aF-0.10623437911272049
aF0.5849809050559998
aa(lp8
F0.18216242588855125
aF-0.12976429635286332
aF0.4346798360347748
aF1.460657000541687
aF-0.10623437911272049
aF0.5849809050559998
aa(lp9
F0.18172999345611882
aF-0.1392642963528633
aF0.4346798360347748
aF1.460657000541687
aF-0.10623437911272049
aF0.5849809050559998
aa(lp10
F0.18172999345611882
aF-0.1442642963528633
aF0.4346798360347748
aF1.460657000541687
aF-0.10623437911272049
aF0.5849809050559998
aa(lp11
F0.18237864210476745
aF-0.1502642963528633
aF0.4346798360347748
aF1.460657000541687
aF-0.10623437911272049
aF0.5849809050559998
aa(lp12
F0.18237864210476745
aF-0.16201429635286332
aF0.4346798360347748
aF1.460657000541687
aF-0.10623437911272049
aF0.5849809050559998
aa(lp13
F0.18216242588855125
aF-0.16551429635286333
aF0.4346798360347748
aF1.460657000541687
aF-0.10623437911272049
aF0.5849809050559998
aa(lp14
F0.18735161507774045
aF-0.1110142963528633
aF0.4346798360347748
aF1.460657000541687
aF-0.10623437911272049
aF0.5849809050559998
aa(lp15
F0.19145972318584853
aF-0.1097642963528633
aF0.4346798360347748
aF1.460657000541687
aF-0.10623437911272049
aF0.5849809050559998
aa(lp16
F0.19578404751017287
aF-0.1085142963528633
aF0.4346798360347748
aF1.460657000541687
aF-0.10623437911272049
aF0.5849809050559998
aa(lp17
F0.20097323669936207
aF-0.1072642963528633
aF0.4346798360347748
aF1.460657000541687
aF-0.10623437911272049
aF0.5849809050559998
aa(lp18
F0.20659485832098368
aF-0.1070142963528633
aF0.4346798360347748
aF1.460657000541687
aF-0.10623437911272049
aF0.5849809050559998
aa(lp19
F0.21048675021287558
aF-0.11176429635286331
aF0.4346798360347748
aF1.460657000541687
aF-0.10623437911272049
aF0.5849809050559998
aa(lp20
F0.21048675021287558
aF-0.12426429635286332
aF0.4346798360347748
aF1.460657000541687
aF-0.10623437911272049
aF0.5849809050559998
aa(lp21
F0.21048675021287558
aF-0.13001429635286332
aF0.4346798360347748
aF1.460657000541687
aF-0.10623437911272049
aF0.5849809050559998
aa(lp22
F0.21048675021287558
aF-0.13701429635286333
aF0.4346798360347748
aF1.460657000541687
aF-0.10623437911272049
aF0.5849809050559998
aa(lp23
F0.21048675021287558
aF-0.1427642963528633
aF0.4346798360347748
aF1.460657000541687
aF-0.10623437911272049
aF0.5849809050559998
aa(lp24
F0.21027053399665935
aF-0.17126429635286333
aF0.4346798360347748
aF1.460657000541687
aF-0.10623437911272049
aF0.5849809050559998
aa(lp25
F0.21070296642909178
aF-0.1762642963528633
aF0.4346798360347748
aF1.460657000541687
aF-0.10623437911272049
aF0.5849809050559998
aa(lp26
F0.210919182645308
aF-0.1787642963528633
aF0.4346798360347748
aF1.460657000541687
aF-0.10623437911272049
aF0.5849809050559998
aa(lp27
F0.21070296642909178
aF-0.16001429635286332
aF0.4346798360347748
aF1.460657000541687
aF-0.10623437911272049
aF0.5849809050559998
aa(lp28
F0.21070296642909178
aF-0.1497642963528633
aF0.4346798360347748
aF1.460657000541687
aF-0.10623437911272049
aF0.5849809050559998
aa(lp29
F0.2096218853480107
aF-0.10451429635286331
aF0.4346798360347748
aF1.460657000541687
aF-0.10623437911272049
aF0.5849809050559998
aa.