(lp0
(lp1
F0.16054081916809082
aF-0.11701429635286331
aF0.4346795380115509
aF1.4606581926345825
aF-0.10623279958963394
aF0.584980845451355
aa(lp2
F0.1614056840329557
aF-0.12126429635286332
aF0.4346795380115509
aF1.4606581926345825
aF-0.10623279958963394
aF0.584980845451355
aa(lp3
F0.162702981330253
aF-0.1257642963528633
aF0.4346795380115509
aF1.4606581926345825
aF-0.10623279958963394
aF0.584980845451355
aa(lp4
F0.16508135970863136
aF-0.13001429635286332
aF0.4346795380115509
aF1.4606581926345825
aF-0.10623279958963394
aF0.584980845451355
aa(lp5
F0.17005433268160433
aF-0.1320142963528633
aF0.4346795380115509
aF1.4606581926345825
aF-0.10623279958963394
aF0.584980845451355
aa(lp6
F0.17373000835728
aF-0.1307642963528633
aF0.4346795380115509
aF1.4606581926345825
aF-0.10623279958963394
aF0.584980845451355
aa(lp7
F0.1778381164653881
aF-0.12701429635286332
aF0.4346795380115509
aF1.4606581926345825
aF-0.10623279958963394
aF0.584980845451355
aa(lp8
F0.1815137921410638
aF-0.12151429635286332
aF0.4346795380115509
aF1.4606581926345825
aF-0.10623279958963394
aF0.584980845451355
aa(lp9
F0.1830273056545773
aF-0.11776429635286331
aF0.4346795380115509
aF1.4606581926345825
aF-0.10623279958963394
aF0.584980845451355
aa(lp10
F0.1845408191680908
aF-0.11326429635286331
aF0.4346795380115509
aF1.4606581926345825
aF-0.10623279958963394
aF0.584980845451355
aa(lp11
F0.18605433268160435
aF-0.1077642963528633
aF0.4346795380115509
aF1.4606581926345825
aF-0.10623279958963394
aF0.584980845451355
aa(lp12
F0.18735162997890162
aF-0.10251429635286331
aF0.4346795380115509
aF1.4606581926345825
aF-0.10623279958963394
aF0.584980845451355
aa(lp13
F0.18821649484376649
aF-0.09751429635286331
aF0.4346795380115509
aF1.4606581926345825
aF-0.10623279958963394
aF0.584980845451355
aa(lp14
F0.18929757592484758
aF-0.0920142963528633
aF0.4346795380115509
aF1.4606581926345825
aF-0.10623279958963394
aF0.584980845451355
aa(lp15
F0.19059487322214488
aF-0.08676429635286331
aF0.4346795380115509
aF1.4606581926345825
aF-0.10623279958963394
aF0.584980845451355
aa(lp16
F0.19189217051944218
aF-0.08176429635286331
aF0.4346795380115509
aF1.4606581926345825
aF-0.10623279958963394
aF0.584980845451355
aa(lp17
F0.1934056840329557
aF-0.0762642963528633
aF0.4346795380115509
aF1.4606581926345825
aF-0.10623279958963394
aF0.584980845451355
aa(lp18
F0.19578406241133406
aF-0.0720142963528633
aF0.4346795380115509
aF1.4606581926345825
aF-0.10623279958963394
aF0.584980845451355
aa(lp19
F0.20097325160052326
aF-0.06776429635286331
aF0.4346795380115509
aF1.4606581926345825
aF-0.10623279958963394
aF0.584980845451355
aa(lp20
F0.20616244078971246
aF-0.06851429635286331
aF0.4346795380115509
aF1.4606581926345825
aF-0.10623279958963394
aF0.584980845451355
aa(lp21
F0.2113516299789016
aF-0.0737642963528633
aF0.4346795380115509
aF1.4606581926345825
aF-0.10623279958963394
aF0.584980845451355
aa(lp22
F0.21481108943836108
aF-0.0792642963528633
aF0.4346795380115509
aF1.4606581926345825
aF-0.10623279958963394
aF0.584980845451355
aa(lp23
F0.21783811646538812
aF-0.08426429635286331
aF0.4346795380115509
aF1.4606581926345825
aF-0.10623279958963394
aF0.584980845451355
aa(lp24
F0.22000027862755028
aF-0.08901429635286331
aF0.4346795380115509
aF1.4606581926345825
aF-0.10623279958963394
aF0.584980845451355
aa(lp25
F0.22151379214106381
aF-0.09401429635286332
aF0.4346795380115509
aF1.4606581926345825
aF-0.10623279958963394
aF0.584980845451355
aa(lp26
F0.2228110894383611
aF-0.09876429635286331
aF0.4346795380115509
aF1.4606581926345825
aF-0.10623279958963394
aF0.584980845451355
aa(lp27
F0.22367595430322595
aF-0.1045142963528633
aF0.4346795380115509
aF1.4606581926345825
aF-0.10623279958963394
aF0.584980845451355
aa(lp28
F0.22367595430322595
aF-0.12051429635286331
aF0.4346795380115509
aF1.4606581926345825
aF-0.10623279958963394
aF0.584980845451355
aa(lp29
F0.22324352187079352
aF-0.1252642963528633
aF0.4346795380115509
aF1.4606581926345825
aF-0.10623279958963394
aF0.584980845451355
aa(lp30
F0.22194622457349622
aF-0.13101429635286332
aF0.4346795380115509
aF1.4606581926345825
aF-0.10623279958963394
aF0.584980845451355
aa(lp31
F0.22021649484376649
aF-0.13476429635286333
aF0.4346795380115509
aF1.4606581926345825
aF-0.10623279958963394
aF0.584980845451355
aa(lp32
F0.16032460295187462
aF-0.1052642963528633
aF0.4346795380115509
aF1.4606581926345825
aF-0.10623279958963394
aF0.584980845451355
aa(lp33
F0.16054081916809082
aF-0.09926429635286331
aF0.4346795380115509
aF1.4606581926345825
aF-0.10623279958963394
aF0.584980845451355
aa(lp34
F0.16054081916809082
aF-0.09476429635286332
aF0.4346795380115509
aF1.4606581926345825
aF-0.10623279958963394
aF0.584980845451355
aa(lp35
F0.16118946781673946
aF-0.08926429635286331
aF0.4346795380115509
aF1.4606581926345825
aF-0.10623279958963394
aF0.584980845451355
aa(lp36
F0.1616219002491719
aF-0.08426429635286331
aF0.4346795380115509
aF1.4606581926345825
aF-0.10623279958963394
aF0.584980845451355
aa.