(lp0
(lp1
F0.1605408787727356
aF-0.11701429635286331
aF0.43467918038368225
aF1.4606597423553467
aF-0.10623067617416382
aF0.5849806666374207
aa(lp2
F0.16508141931327613
aF-0.11601429635286331
aF0.43467918038368225
aF1.4606597423553467
aF-0.10623067617416382
aF0.5849806666374207
aa(lp3
F0.17221655444841127
aF-0.11551429635286331
aF0.43467918038368225
aF1.4606597423553467
aF-0.10623067617416382
aF0.5849806666374207
aa(lp4
F0.18064898688084371
aF-0.11801429635286331
aF0.43467918038368225
aF1.4606597423553467
aF-0.10623067617416382
aF0.5849806666374207
aa(lp5
F0.17956790579976262
aF-0.12451429635286332
aF0.43467918038368225
aF1.4606597423553467
aF-0.10623067617416382
aF0.5849806666374207
aa(lp6
F0.17740574363760045
aF-0.12951429635286332
aF0.43467918038368225
aF1.4606597423553467
aF-0.10623067617416382
aF0.5849806666374207
aa(lp7
F0.17481114904300588
aF-0.13601429635286333
aF0.43467918038368225
aF1.4606597423553467
aF-0.10623067617416382
aF0.5849806666374207
aa(lp8
F0.17200033823219504
aF-0.14201429635286333
aF0.43467918038368225
aF1.4606597423553467
aF-0.10623067617416382
aF0.5849806666374207
aa(lp9
F0.1687570949889518
aF-0.1487642963528633
aF0.43467918038368225
aF1.4606597423553467
aF-0.10623067617416382
aF0.5849806666374207
aa(lp10
F0.1657300679619248
aF-0.15476429635286332
aF0.43467918038368225
aF1.4606597423553467
aF-0.10623067617416382
aF0.5849806666374207
aa(lp11
F0.1631354733673302
aF-0.16076429635286332
aF0.43467918038368225
aF1.4606597423553467
aF-0.10623067617416382
aF0.5849806666374207
aa(lp12
F0.16227060850246533
aF-0.16351429635286333
aF0.43467918038368225
aF1.4606597423553467
aF-0.10623067617416382
aF0.5849806666374207
aa(lp13
F0.18367601390787072
aF-0.13176429635286332
aF0.43467918038368225
aF1.4606597423553467
aF-0.10623067617416382
aF0.5849806666374207
aa(lp14
F0.1845408787727356
aF-0.1397642963528633
aF0.43467918038368225
aF1.4606597423553467
aF-0.10623067617416382
aF0.5849806666374207
aa(lp15
F0.18627060850246532
aF-0.1455142963528633
aF0.43467918038368225
aF1.4606597423553467
aF-0.10623067617416382
aF0.5849806666374207
aa(lp16
F0.19167601390787073
aF-0.15251429635286332
aF0.43467918038368225
aF1.4606597423553467
aF-0.10623067617416382
aF0.5849806666374207
aa(lp17
F0.19600033823219506
aF-0.15451429635286332
aF0.43467918038368225
aF1.4606597423553467
aF-0.10623067617416382
aF0.5849806666374207
aa(lp18
F0.2020543922862491
aF-0.15351429635286332
aF0.43467918038368225
aF1.4606597423553467
aF-0.10623067617416382
aF0.5849806666374207
aa(lp19
F0.20897331120516804
aF-0.1455142963528633
aF0.43467918038368225
aF1.4606597423553467
aF-0.10623067617416382
aF0.5849806666374207
aa(lp20
F0.21178412201597885
aF-0.1397642963528633
aF0.43467918038368225
aF1.4606597423553467
aF-0.10623067617416382
aF0.5849806666374207
aa(lp21
F0.213946284178141
aF-0.13426429635286333
aF0.43467918038368225
aF1.4606597423553467
aF-0.10623067617416382
aF0.5849806666374207
aa(lp22
F0.21545979769165452
aF-0.12851429635286332
aF0.43467918038368225
aF1.4606597423553467
aF-0.10623067617416382
aF0.5849806666374207
aa(lp23
F0.21589223012408693
aF-0.12201429635286332
aF0.43467918038368225
aF1.4606597423553467
aF-0.10623067617416382
aF0.5849806666374207
aa(lp24
F0.2152435814754383
aF-0.11476429635286331
aF0.43467918038368225
aF1.4606597423553467
aF-0.10623067617416382
aF0.5849806666374207
aa(lp25
F0.21351385174570858
aF-0.1115142963528633
aF0.43467918038368225
aF1.4606597423553467
aF-0.10623067617416382
aF0.5849806666374207
aa(lp26
F0.19989223012408694
aF-0.11176429635286331
aF0.43467918038368225
aF1.4606597423553467
aF-0.10623067617416382
aF0.5849806666374207
aa(lp27
F0.19232466255651937
aF-0.11226429635286331
aF0.43467918038368225
aF1.4606597423553467
aF-0.10623067617416382
aF0.5849806666374207
aa(lp28
F0.1845408787727356
aF-0.11326429635286331
aF0.43467918038368225
aF1.4606597423553467
aF-0.10623067617416382
aF0.5849806666374207
aa.