(lp0
(lp1
F0.16054081916809082
aF-0.11701429635286331
aF0.4346795380115509
aF1.4606581926345825
aF-0.10623279958963394
aF0.584980845451355
aa(lp2
F0.162702981330253
aF-0.11276429635286331
aF0.4346795380115509
aF1.4606581926345825
aF-0.10623279958963394
aF0.584980845451355
aa(lp3
F0.16508135970863136
aF-0.10826429635286332
aF0.4346795380115509
aF1.4606581926345825
aF-0.10623279958963394
aF0.584980845451355
aa(lp4
F0.16767595430322596
aF-0.10351429635286331
aF0.4346795380115509
aF1.4606581926345825
aF-0.10623279958963394
aF0.584980845451355
aa(lp5
F0.17048676511403676
aF-0.09826429635286331
aF0.4346795380115509
aF1.4606581926345825
aF-0.10623279958963394
aF0.584980845451355
aa(lp6
F0.17329757592484757
aF-0.09301429635286332
aF0.4346795380115509
aF1.4606581926345825
aF-0.10623279958963394
aF0.584980845451355
aa(lp7
F0.17545973808700974
aF-0.08801429635286331
aF0.4346795380115509
aF1.4606581926345825
aF-0.10623279958963394
aF0.584980845451355
aa(lp8
F0.17805433268160434
aF-0.08301429635286331
aF0.4346795380115509
aF1.4606581926345825
aF-0.10623279958963394
aF0.584980845451355
aa(lp9
F0.18108135970863137
aF-0.07926429635286332
aF0.4346795380115509
aF1.4606581926345825
aF-0.10623279958963394
aF0.584980845451355
aa(lp10
F0.1869191975464692
aF-0.08501429635286331
aF0.4346795380115509
aF1.4606581926345825
aF-0.10623279958963394
aF0.584980845451355
aa(lp11
F0.18951379214106379
aF-0.08951429635286332
aF0.4346795380115509
aF1.4606581926345825
aF-0.10623279958963394
aF0.584980845451355
aa(lp12
F0.19232460295187462
aF-0.09476429635286332
aF0.4346795380115509
aF1.4606581926345825
aF-0.10623279958963394
aF0.584980845451355
aa(lp13
F0.19513541376268542
aF-0.10001429635286332
aF0.4346795380115509
aF1.4606581926345825
aF-0.10623279958963394
aF0.584980845451355
aa(lp14
F0.19794622457349623
aF-0.10476429635286331
aF0.4346795380115509
aF1.4606581926345825
aF-0.10623279958963394
aF0.584980845451355
aa(lp15
F0.2014056840329557
aF-0.1102642963528633
aF0.4346795380115509
aF1.4606581926345825
aF-0.10623279958963394
aF0.584980845451355
aa(lp16
F0.20486514349241514
aF-0.11576429635286332
aF0.4346795380115509
aF1.4606581926345825
aF-0.10623279958963394
aF0.584980845451355
aa(lp17
F0.2081083867356584
aF-0.12026429635286333
aF0.4346795380115509
aF1.4606581926345825
aF-0.10623279958963394
aF0.584980845451355
aa(lp18
F0.18648676511403678
aF-0.07401429635286332
aF0.4346795380115509
aF1.4606581926345825
aF-0.10623279958963394
aF0.584980845451355
aa(lp19
F0.1921083867356584
aF-0.07376429635286331
aF0.4346795380115509
aF1.4606581926345825
aF-0.10623279958963394
aF0.584980845451355
aa(lp20
F0.19794622457349623
aF-0.07326429635286331
aF0.4346795380115509
aF1.4606581926345825
aF-0.10623279958963394
aF0.584980845451355
aa(lp21
F0.2042164948437665
aF-0.07226429635286331
aF0.4346795380115509
aF1.4606581926345825
aF-0.10623279958963394
aF0.584980845451355
aa(lp22
F0.20789217051944217
aF-0.07151429635286331
aF0.4346795380115509
aF1.4606581926345825
aF-0.10623279958963394
aF0.584980845451355
aa(lp23
F0.21545973808700974
aF-0.07176429635286331
aF0.4346795380115509
aF1.4606581926345825
aF-0.10623279958963394
aF0.584980845451355
aa(lp24
F0.17805433268160434
aF-0.0757642963528633
aF0.4346795380115509
aF1.4606581926345825
aF-0.10623279958963394
aF0.584980845451355
aa(lp25
F0.17394622457349623
aF-0.0755142963528633
aF0.4346795380115509
aF1.4606581926345825
aF-0.10623279958963394
aF0.584980845451355
aa(lp26
F0.16875703538430703
aF-0.0762642963528633
aF0.4346795380115509
aF1.4606581926345825
aF-0.10623279958963394
aF0.584980845451355
aa(lp27
F0.16205433268160432
aF-0.0762642963528633
aF0.4346795380115509
aF1.4606581926345825
aF-0.10623279958963394
aF0.584980845451355
aa(lp28
F0.16032460295187462
aF-0.0765142963528633
aF0.4346795380115509
aF1.4606581926345825
aF-0.10623279958963394
aF0.584980845451355
aa.