(lp0
(lp1
F0.1587934046983719
aF-0.12725017964839935
aF0.4345431625843048
aF1.465505599975586
aF-0.1091778352856636
aF0.5120815634727478
aa(lp2
F0.15895556686053405
aF-0.12293767964839934
aF0.4345431625843048
aF1.465505599975586
aF-0.1091778352856636
aF0.5120815634727478
aa(lp3
F0.15944205334702052
aF-0.11618767964839935
aF0.4345431625843048
aF1.465505599975586
aF-0.1091778352856636
aF0.5120815634727478
aa(lp4
F0.1596042155091827
aF-0.11206267964839935
aF0.4345431625843048
aF1.465505599975586
aF-0.1091778352856636
aF0.5120815634727478
aa(lp5
F0.1596042155091827
aF-0.09387517964839935
aF0.4345431625843048
aF1.465505599975586
aF-0.1091778352856636
aF0.5120815634727478
aa(lp6
F0.16041502631999352
aF-0.08787517964839935
aF0.4345431625843048
aF1.465505599975586
aF-0.1091778352856636
aF0.5120815634727478
aa(lp7
F0.16333394523891243
aF-0.08618767964839935
aF0.4345431625843048
aF1.465505599975586
aF-0.1091778352856636
aF0.5120815634727478
aa(lp8
F0.17176637767134487
aF-0.08637517964839934
aF0.4345431625843048
aF1.465505599975586
aF-0.1091778352856636
aF0.5120815634727478
aa(lp9
F0.17436097226593944
aF-0.08600017964839934
aF0.4345431625843048
aF1.465505599975586
aF-0.1091778352856636
aF0.5120815634727478
aa(lp10
F0.18133394523891244
aF-0.08600017964839934
aF0.4345431625843048
aF1.465505599975586
aF-0.1091778352856636
aF0.5120815634727478
aa(lp11
F0.18587448577945298
aF-0.08600017964839934
aF0.4345431625843048
aF1.465505599975586
aF-0.1091778352856636
aF0.5120815634727478
aa(lp12
F0.19057718848215566
aF-0.08562517964839934
aF0.4345431625843048
aF1.465505599975586
aF-0.1091778352856636
aF0.5120815634727478
aa(lp13
F0.1943069182118854
aF-0.08506267964839935
aF0.4345431625843048
aF1.465505599975586
aF-0.1091778352856636
aF0.5120815634727478
aa(lp14
F0.1981988101037773
aF-0.08412517964839936
aF0.4345431625843048
aF1.465505599975586
aF-0.1091778352856636
aF0.5120815634727478
aa(lp15
F0.20095556686053406
aF-0.08337517964839936
aF0.4345431625843048
aF1.465505599975586
aF-0.1091778352856636
aF0.5120815634727478
aa(lp16
F0.15944205334702052
aF-0.10306267964839935
aF0.4345431625843048
aF1.465505599975586
aF-0.1091778352856636
aF0.5120815634727478
aa(lp17
F0.15944205334702052
aF-0.10550017964839935
aF0.4345431625843048
aF1.465505599975586
aF-0.1091778352856636
aF0.5120815634727478
aa.