(lp0
(lp1
F0.16054081916809082
aF-0.11701429635286331
aF0.4346795380115509
aF1.4606581926345825
aF-0.10623279958963394
aF0.584980845451355
aa(lp2
F0.16183811646538812
aF-0.1168267963528633
aF0.4346795380115509
aF1.4606581926345825
aF-0.10623279958963394
aF0.584980845451355
aa(lp3
F0.17156784619511786
aF-0.11701429635286331
aF0.4346795380115509
aF1.4606581926345825
aF-0.10623279958963394
aF0.584980845451355
aa(lp4
F0.17459487322214487
aF-0.11626429635286331
aF0.4346795380115509
aF1.4606581926345825
aF-0.10623279958963394
aF0.584980845451355
aa(lp5
F0.1791354137626854
aF-0.11551429635286331
aF0.4346795380115509
aF1.4606581926345825
aF-0.10623279958963394
aF0.584980845451355
aa(lp6
F0.1791354137626854
aF-0.12132679635286331
aF0.4346795380115509
aF1.4606581926345825
aF-0.10623279958963394
aF0.584980845451355
aa(lp7
F0.1791354137626854
aF-0.1293892963528633
aF0.4346795380115509
aF1.4606581926345825
aF-0.10623279958963394
aF0.584980845451355
aa(lp8
F0.18000027862755028
aF-0.1344517963528633
aF0.4346795380115509
aF1.4606581926345825
aF-0.10623279958963394
aF0.584980845451355
aa(lp9
F0.1815137921410638
aF-0.1382017963528633
aF0.4346795380115509
aF1.4606581926345825
aF-0.10623279958963394
aF0.584980845451355
aa(lp10
F0.1832435218707935
aF-0.1410142963528633
aF0.4346795380115509
aF1.4606581926345825
aF-0.10623279958963394
aF0.584980845451355
aa(lp11
F0.1882164948437665
aF-0.1447642963528633
aF0.4346795380115509
aF1.4606581926345825
aF-0.10623279958963394
aF0.584980845451355
aa(lp12
F0.19167595430322595
aF-0.14570179635286332
aF0.4346795380115509
aF1.4606581926345825
aF-0.10623279958963394
aF0.584980845451355
aa(lp13
F0.2003246029518746
aF-0.14513929635286332
aF0.4346795380115509
aF1.4606581926345825
aF-0.10623279958963394
aF0.584980845451355
aa(lp14
F0.20508135970863137
aF-0.1404517963528633
aF0.4346795380115509
aF1.4606581926345825
aF-0.10623279958963394
aF0.584980845451355
aa(lp15
F0.2070273056545773
aF-0.1367017963528633
aF0.4346795380115509
aF1.4606581926345825
aF-0.10623279958963394
aF0.584980845451355
aa(lp16
F0.2081083867356584
aF-0.1331392963528633
aF0.4346795380115509
aF1.4606581926345825
aF-0.10623279958963394
aF0.584980845451355
aa(lp17
F0.20897325160052327
aF-0.1293892963528633
aF0.4346795380115509
aF1.4606581926345825
aF-0.10623279958963394
aF0.584980845451355
aa(lp18
F0.20940568403295567
aF-0.12526429635286332
aF0.4346795380115509
aF1.4606581926345825
aF-0.10623279958963394
aF0.584980845451355
aa(lp19
F0.20897325160052327
aF-0.11963929635286331
aF0.4346795380115509
aF1.4606581926345825
aF-0.10623279958963394
aF0.584980845451355
aa(lp20
F0.20745973808700974
aF-0.11588929635286331
aF0.4346795380115509
aF1.4606581926345825
aF-0.10623279958963394
aF0.584980845451355
aa(lp21
F0.20183811646538813
aF-0.11438929635286331
aF0.4346795380115509
aF1.4606581926345825
aF-0.10623279958963394
aF0.584980845451355
aa(lp22
F0.19902730565457732
aF-0.11438929635286331
aF0.4346795380115509
aF1.4606581926345825
aF-0.10623279958963394
aF0.584980845451355
aa(lp23
F0.18778406241133408
aF-0.1145767963528633
aF0.4346795380115509
aF1.4606581926345825
aF-0.10623279958963394
aF0.584980845451355
aa.