(lp0
(lp1
F0.16054072976112366
aF-0.11701429635286331
aF0.43468043208122253
aF1.4606544971466064
aF-0.10623789578676224
aF0.5849811434745789
aa(lp2
F0.1650812703016642
aF-0.11626429635286331
aF0.43468043208122253
aF1.4606544971466064
aF-0.10623789578676224
aF0.5849811434745789
aa(lp3
F0.16854072976112366
aF-0.11501429635286331
aF0.43468043208122253
aF1.4606544971466064
aF-0.10623789578676224
aF0.5849811434745789
aa(lp4
F0.1717839730043669
aF-0.11351429635286331
aF0.43468043208122253
aF1.4606544971466064
aF-0.10623789578676224
aF0.5849811434745789
aa(lp5
F0.17805424327463718
aF-0.11326429635286331
aF0.43468043208122253
aF1.4606544971466064
aF-0.10623789578676224
aF0.5849811434745789
aa(lp6
F0.18043262165301555
aF-0.12276429635286332
aF0.43468043208122253
aF1.4606544971466064
aF-0.10623789578676224
aF0.5849811434745789
aa(lp7
F0.1800001892205831
aF-0.1352642963528633
aF0.43468043208122253
aF1.4606544971466064
aF-0.10623789578676224
aF0.5849811434745789
aa(lp8
F0.1800001892205831
aF-0.13951429635286333
aF0.43468043208122253
aF1.4606544971466064
aF-0.10623789578676224
aF0.5849811434745789
aa(lp9
F0.1800001892205831
aF-0.1477642963528633
aF0.43468043208122253
aF1.4606544971466064
aF-0.10623789578676224
aF0.5849811434745789
aa(lp10
F0.17956775678815068
aF-0.15401429635286332
aF0.43468043208122253
aF1.4606544971466064
aF-0.10623789578676224
aF0.5849811434745789
aa(lp11
F0.1782704594908534
aF-0.1600142963528633
aF0.43468043208122253
aF1.4606544971466064
aF-0.10623789578676224
aF0.5849811434745789
aa(lp12
F0.17372991895031284
aF-0.16251429635286332
aF0.43468043208122253
aF1.4606544971466064
aF-0.10623789578676224
aF0.5849811434745789
aa(lp13
F0.16832451354490746
aF-0.16151429635286332
aF0.43468043208122253
aF1.4606544971466064
aF-0.10623789578676224
aF0.5849811434745789
aa(lp14
F0.16464883786923176
aF-0.16076429635286332
aF0.43468043208122253
aF1.4606544971466064
aF-0.10623789578676224
aF0.5849811434745789
aa(lp15
F0.16183802705842096
aF-0.1605142963528633
aF0.43468043208122253
aF1.4606544971466064
aF-0.10623789578676224
aF0.5849811434745789
aa(lp16
F0.17935154057193448
aF-0.16201429635286332
aF0.43468043208122253
aF1.4606544971466064
aF-0.10623789578676224
aF0.5849811434745789
aa(lp17
F0.19881100003139393
aF-0.16351429635286333
aF0.43468043208122253
aF1.4606544971466064
aF-0.10623789578676224
aF0.5849811434745789
aa(lp18
F0.2037839730043669
aF-0.16426429635286333
aF0.43468043208122253
aF1.4606544971466064
aF-0.10623789578676224
aF0.5849811434745789
aa(lp19
F0.2065947838151777
aF-0.16476429635286333
aF0.43468043208122253
aF1.4606544971466064
aF-0.10623789578676224
aF0.5849811434745789
aa(lp20
F0.18864883786923176
aF-0.16276429635286332
aF0.43468043208122253
aF1.4606544971466064
aF-0.10623789578676224
aF0.5849811434745789
aa(lp21
F0.18497316219355608
aF-0.16276429635286332
aF0.43468043208122253
aF1.4606544971466064
aF-0.10623789578676224
aF0.5849811434745789
aa(lp22
F0.18086505408544798
aF-0.11826429635286331
aF0.43468043208122253
aF1.4606544971466064
aF-0.10623789578676224
aF0.5849811434745789
aa(lp23
F0.18172991895031285
aF-0.1115142963528633
aF0.43468043208122253
aF1.4606544971466064
aF-0.10623789578676224
aF0.5849811434745789
aa(lp24
F0.1877839730043669
aF-0.1107642963528633
aF0.43468043208122253
aF1.4606544971466064
aF-0.10623789578676224
aF0.5849811434745789
aa(lp25
F0.19254072976112366
aF-0.1100142963528633
aF0.43468043208122253
aF1.4606544971466064
aF-0.10623789578676224
aF0.5849811434745789
aa(lp26
F0.19664883786923176
aF-0.10901429635286332
aF0.43468043208122253
aF1.4606544971466064
aF-0.10623789578676224
aF0.5849811434745789
aa(lp27
F0.20032451354490743
aF-0.10776429635286332
aF0.43468043208122253
aF1.4606544971466064
aF-0.10623789578676224
aF0.5849811434745789
aa(lp28
F0.2040001892205831
aF-0.10676429635286332
aF0.43468043208122253
aF1.4606544971466064
aF-0.10623789578676224
aF0.5849811434745789
aa(lp29
F0.21005424327463718
aF-0.10601429635286332
aF0.43468043208122253
aF1.4606544971466064
aF-0.10623789578676224
aF0.5849811434745789
aa.