(lp0
(lp1
F0.16054078936576843
aF-0.11701429635286331
aF0.4346798360347748
aF1.460657000541687
aF-0.10623452812433243
aF0.5849809646606445
aa(lp2
F0.16097322179820087
aF-0.12201429635286332
aF0.4346798360347748
aF1.460657000541687
aF-0.10623452812433243
aF0.5849809646606445
aa(lp3
F0.16183808666306573
aF-0.12726429635286332
aF0.4346798360347748
aF1.460657000541687
aF-0.10623452812433243
aF0.5849809646606445
aa(lp4
F0.16335160017657924
aF-0.13251429635286333
aF0.4346798360347748
aF1.460657000541687
aF-0.10623452812433243
aF0.5849809646606445
aa(lp5
F0.1655137623387414
aF-0.13751429635286333
aF0.4346798360347748
aF1.460657000541687
aF-0.10623452812433243
aF0.5849809646606445
aa(lp6
F0.17156781639279545
aF-0.1442642963528633
aF0.4346798360347748
aF1.460657000541687
aF-0.10623452812433243
aF0.5849809646606445
aa(lp7
F0.17545970828468735
aF-0.1460142963528633
aF0.4346798360347748
aF1.460657000541687
aF-0.10623452812433243
aF0.5849809646606445
aa(lp8
F0.18021646504144412
aF-0.1470142963528633
aF0.4346798360347748
aF1.460657000541687
aF-0.10623452812433243
aF0.5849809646606445
aa(lp9
F0.18691916774414682
aF-0.1475142963528633
aF0.4346798360347748
aF1.460657000541687
aF-0.10623452812433243
aF0.5849809646606445
aa(lp10
F0.1918921407171198
aF-0.1465142963528633
aF0.4346798360347748
aF1.460657000541687
aF-0.10623452812433243
aF0.5849809646606445
aa(lp11
F0.19600024882522787
aF-0.1445142963528633
aF0.4346798360347748
aF1.460657000541687
aF-0.10623452812433243
aF0.5849809646606445
aa(lp12
F0.20097322179820087
aF-0.1400142963528633
aF0.4346798360347748
aF1.460657000541687
aF-0.10623452812433243
aF0.5849809646606445
aa(lp13
F0.20443268125766034
aF-0.13501429635286333
aF0.4346798360347748
aF1.460657000541687
aF-0.10623452812433243
aF0.5849809646606445
aa(lp14
F0.20832457314955222
aF-0.12901429635286332
aF0.4346798360347748
aF1.460657000541687
aF-0.10623452812433243
aF0.5849809646606445
aa(lp15
F0.20918943801441708
aF-0.12351429635286332
aF0.4346798360347748
aF1.460657000541687
aF-0.10623452812433243
aF0.5849809646606445
aa(lp16
F0.20897322179820088
aF-0.11676429635286331
aF0.4346798360347748
aF1.460657000541687
aF-0.10623452812433243
aF0.5849809646606445
aa(lp17
F0.20832457314955222
aF-0.11176429635286331
aF0.4346798360347748
aF1.460657000541687
aF-0.10623452812433243
aF0.5849809646606445
aa(lp18
F0.20767592450090358
aF-0.1060142963528633
aF0.4346798360347748
aF1.460657000541687
aF-0.10623452812433243
aF0.5849809646606445
aa(lp19
F0.20702727585225492
aF-0.09926429635286331
aF0.4346798360347748
aF1.460657000541687
aF-0.10623452812433243
aF0.5849809646606445
aa(lp20
F0.20594619477117385
aF-0.09376429635286332
aF0.4346798360347748
aF1.460657000541687
aF-0.10623452812433243
aF0.5849809646606445
aa(lp21
F0.20443268125766034
aF-0.08851429635286331
aF0.4346798360347748
aF1.460657000541687
aF-0.10623452812433243
aF0.5849809646606445
aa(lp22
F0.20227051909549815
aF-0.08376429635286331
aF0.4346798360347748
aF1.460657000541687
aF-0.10623452812433243
aF0.5849809646606445
aa(lp23
F0.1998921407171198
aF-0.0790142963528633
aF0.4346798360347748
aF1.460657000541687
aF-0.10623452812433243
aF0.5849809646606445
aa(lp24
F0.1975137623387414
aF-0.07526429635286332
aF0.4346798360347748
aF1.460657000541687
aF-0.10623452812433243
aF0.5849809646606445
aa(lp25
F0.1918921407171198
aF-0.06901429635286331
aF0.4346798360347748
aF1.460657000541687
aF-0.10623452812433243
aF0.5849809646606445
aa(lp26
F0.18713538396036303
aF-0.06626429635286331
aF0.4346798360347748
aF1.460657000541687
aF-0.10623452812433243
aF0.5849809646606445
aa(lp27
F0.18324349206847113
aF-0.06526429635286331
aF0.4346798360347748
aF1.460657000541687
aF-0.10623452812433243
aF0.5849809646606445
aa(lp28
F0.17675700558198465
aF-0.06526429635286331
aF0.4346798360347748
aF1.460657000541687
aF-0.10623452812433243
aF0.5849809646606445
aa(lp29
F0.17308132990630898
aF-0.06726429635286331
aF0.4346798360347748
aF1.460657000541687
aF-0.10623452812433243
aF0.5849809646606445
aa(lp30
F0.16767592450090357
aF-0.07401429635286332
aF0.4346798360347748
aF1.460657000541687
aF-0.10623452812433243
aF0.5849809646606445
aa(lp31
F0.1655137623387414
aF-0.0790142963528633
aF0.4346798360347748
aF1.460657000541687
aF-0.10623452812433243
aF0.5849809646606445
aa(lp32
F0.1640002488252279
aF-0.08401429635286331
aF0.4346798360347748
aF1.460657000541687
aF-0.10623452812433243
aF0.5849809646606445
aa(lp33
F0.1629191677441468
aF-0.08901429635286331
aF0.4346798360347748
aF1.460657000541687
aF-0.10623452812433243
aF0.5849809646606445
aa(lp34
F0.16183808666306573
aF-0.09426429635286332
aF0.4346798360347748
aF1.460657000541687
aF-0.10623452812433243
aF0.5849809646606445
aa(lp35
F0.16097322179820087
aF-0.09926429635286331
aF0.4346798360347748
aF1.460657000541687
aF-0.10623452812433243
aF0.5849809646606445
aa(lp36
F0.16054078936576843
aF-0.1045142963528633
aF0.4346798360347748
aF1.460657000541687
aF-0.10623452812433243
aF0.5849809646606445
aa.