(lp0
(lp1
F0.16054081916809082
aF-0.11701429635286331
aF0.4346795380115509
aF1.4606581926345825
aF-0.10623279958963394
aF0.584980845451355
aa(lp2
F0.16356784619511786
aF-0.11701429635286331
aF0.4346795380115509
aF1.4606581926345825
aF-0.10623279958963394
aF0.584980845451355
aa(lp3
F0.170702981330253
aF-0.11776429635286331
aF0.4346795380115509
aF1.4606581926345825
aF-0.10623279958963394
aF0.584980845451355
aa(lp4
F0.17437865700592867
aF-0.1183267963528633
aF0.4346795380115509
aF1.4606581926345825
aF-0.10623279958963394
aF0.584980845451355
aa(lp5
F0.17805433268160434
aF-0.11926429635286331
aF0.4346795380115509
aF1.4606581926345825
aF-0.10623279958963394
aF0.584980845451355
aa(lp6
F0.1830273056545773
aF-0.12001429635286331
aF0.4346795380115509
aF1.4606581926345825
aF-0.10623279958963394
aF0.584980845451355
aa(lp7
F0.18800027862755028
aF-0.12095179635286331
aF0.4346795380115509
aF1.4606581926345825
aF-0.10623279958963394
aF0.584980845451355
aa(lp8
F0.19167595430322595
aF-0.12170179635286331
aF0.4346795380115509
aF1.4606581926345825
aF-0.10623279958963394
aF0.584980845451355
aa(lp9
F0.19643271105998272
aF-0.1226392963528633
aF0.4346795380115509
aF1.4606581926345825
aF-0.10623279958963394
aF0.584980845451355
aa(lp10
F0.20140568403295567
aF-0.1230142963528633
aF0.4346795380115509
aF1.4606581926345825
aF-0.10623279958963394
aF0.584980845451355
aa(lp11
F0.20681108943836107
aF-0.1237642963528633
aF0.4346795380115509
aF1.4606581926345825
aF-0.10623279958963394
aF0.584980845451355
aa(lp12
F0.21200027862755028
aF-0.12432679635286331
aF0.4346795380115509
aF1.4606581926345825
aF-0.10623279958963394
aF0.584980845451355
aa(lp13
F0.20443271105998273
aF-0.11738929635286331
aF0.4346795380115509
aF1.4606581926345825
aF-0.10623279958963394
aF0.584980845451355
aa(lp14
F0.20054081916809083
aF-0.11270179635286331
aF0.4346795380115509
aF1.4606581926345825
aF-0.10623279958963394
aF0.584980845451355
aa(lp15
F0.18864892727619892
aF-0.1025767963528633
aF0.4346795380115509
aF1.4606581926345825
aF-0.10623279958963394
aF0.584980845451355
aa(lp16
F0.18367595430322595
aF-0.09901429635286331
aF0.4346795380115509
aF1.4606581926345825
aF-0.10623279958963394
aF0.584980845451355
aa(lp17
F0.1804327110599827
aF-0.09601429635286331
aF0.4346795380115509
aF1.4606581926345825
aF-0.10623279958963394
aF0.584980845451355
aa(lp18
F0.18410838673565838
aF-0.09151429635286332
aF0.4346795380115509
aF1.4606581926345825
aF-0.10623279958963394
aF0.584980845451355
aa(lp19
F0.1908110894383611
aF-0.0860767963528633
aF0.4346795380115509
aF1.4606581926345825
aF-0.10623279958963394
aF0.584980845451355
aa(lp20
F0.19686514349241513
aF-0.08138929635286331
aF0.4346795380115509
aF1.4606581926345825
aF-0.10623279958963394
aF0.584980845451355
aa(lp21
F0.20054081916809083
aF-0.0772642963528633
aF0.4346795380115509
aF1.4606581926345825
aF-0.10623279958963394
aF0.584980845451355
aa(lp22
F0.20508135970863137
aF-0.0727642963528633
aF0.4346795380115509
aF1.4606581926345825
aF-0.10623279958963394
aF0.584980845451355
aa(lp23
F0.2081083867356584
aF-0.0692017963528633
aF0.4346795380115509
aF1.4606581926345825
aF-0.10623279958963394
aF0.584980845451355
aa(lp24
F0.21005433268160434
aF-0.06676429635286331
aF0.4346795380115509
aF1.4606581926345825
aF-0.10623279958963394
aF0.584980845451355
aa(lp25
F0.20681108943836107
aF-0.0662017963528633
aF0.4346795380115509
aF1.4606581926345825
aF-0.10623279958963394
aF0.584980845451355
aa(lp26
F0.1998921705194422
aF-0.06601429635286331
aF0.4346795380115509
aF1.4606581926345825
aF-0.10623279958963394
aF0.584980845451355
aa(lp27
F0.19535162997890165
aF-0.06657679635286332
aF0.4346795380115509
aF1.4606581926345825
aF-0.10623279958963394
aF0.584980845451355
aa(lp28
F0.19037865700592865
aF-0.06713929635286331
aF0.4346795380115509
aF1.4606581926345825
aF-0.10623279958963394
aF0.584980845451355
aa(lp29
F0.18627054889782055
aF-0.06788929635286331
aF0.4346795380115509
aF1.4606581926345825
aF-0.10623279958963394
aF0.584980845451355
aa(lp30
F0.18237865700592867
aF-0.0688267963528633
aF0.4346795380115509
aF1.4606581926345825
aF-0.10623279958963394
aF0.584980845451355
aa(lp31
F0.17827054889782054
aF-0.0695767963528633
aF0.4346795380115509
aF1.4606581926345825
aF-0.10623279958963394
aF0.584980845451355
aa(lp32
F0.17329757592484757
aF-0.0703267963528633
aF0.4346795380115509
aF1.4606581926345825
aF-0.10623279958963394
aF0.584980845451355
aa(lp33
F0.16897325160052326
aF-0.07088929635286331
aF0.4346795380115509
aF1.4606581926345825
aF-0.10623279958963394
aF0.584980845451355
aa(lp34
F0.1640002786275503
aF-0.0714517963528633
aF0.4346795380115509
aF1.4606581926345825
aF-0.10623279958963394
aF0.584980845451355
aa(lp35
F0.15989217051944216
aF-0.0720142963528633
aF0.4346795380115509
aF1.4606581926345825
aF-0.10623279958963394
aF0.584980845451355
aa(lp36
F0.19643271105998272
aF-0.1106392963528633
aF0.4346795380115509
aF1.4606581926345825
aF-0.10623279958963394
aF0.584980845451355
aa.