(lp0
(lp1
F0.16054080426692963
aF-0.11701429635286331
aF0.4346798360347748
aF1.460657000541687
aF-0.10623437911272049
aF0.5849809050559998
aa(lp2
F0.16075702048314583
aF-0.12526429635286332
aF0.4346798360347748
aF1.460657000541687
aF-0.10623437911272049
aF0.5849809050559998
aa(lp3
F0.16097323669936206
aF-0.1337642963528633
aF0.4346798360347748
aF1.460657000541687
aF-0.10623437911272049
aF0.5849809050559998
aa(lp4
F0.1616218853480107
aF-0.1400142963528633
aF0.4346798360347748
aF1.460657000541687
aF-0.10623437911272049
aF0.5849809050559998
aa(lp5
F0.16313539886152423
aF-0.1452642963528633
aF0.4346798360347748
aF1.460657000541687
aF-0.10623437911272049
aF0.5849809050559998
aa(lp6
F0.16594620967233503
aF-0.1502642963528633
aF0.4346798360347748
aF1.460657000541687
aF-0.10623437911272049
aF0.5849809050559998
aa(lp7
F0.1707029664290918
aF-0.15226429635286332
aF0.4346798360347748
aF1.460657000541687
aF-0.10623437911272049
aF0.5849809050559998
aa(lp8
F0.1748110745371999
aF-0.1492642963528633
aF0.4346798360347748
aF1.460657000541687
aF-0.10623437911272049
aF0.5849809050559998
aa(lp9
F0.1776218853480107
aF-0.1442642963528633
aF0.4346798360347748
aF1.460657000541687
aF-0.10623437911272049
aF0.5849809050559998
aa(lp10
F0.17935161507774044
aF-0.1395142963528633
aF0.4346798360347748
aF1.460657000541687
aF-0.10623437911272049
aF0.5849809050559998
aa(lp11
F0.18194620967233505
aF-0.1360142963528633
aF0.4346798360347748
aF1.460657000541687
aF-0.10623437911272049
aF0.5849809050559998
aa(lp12
F0.18216242588855125
aF-0.1302642963528633
aF0.4346798360347748
aF1.460657000541687
aF-0.10623437911272049
aF0.5849809050559998
aa(lp13
F0.18259485832098368
aF-0.12701429635286332
aF0.4346798360347748
aF1.460657000541687
aF-0.10623437911272049
aF0.5849809050559998
aa(lp14
F0.18475702048314585
aF-0.1445142963528633
aF0.4346798360347748
aF1.460657000541687
aF-0.10623437911272049
aF0.5849809050559998
aa(lp15
F0.18627053399665935
aF-0.1495142963528633
aF0.4346798360347748
aF1.460657000541687
aF-0.10623437911272049
aF0.5849809050559998
aa(lp16
F0.18864891237503773
aF-0.15426429635286332
aF0.4346798360347748
aF1.460657000541687
aF-0.10623437911272049
aF0.5849809050559998
aa(lp17
F0.19318945291557826
aF-0.15851429635286332
aF0.4346798360347748
aF1.460657000541687
aF-0.10623437911272049
aF0.5849809050559998
aa(lp18
F0.1988110745371999
aF-0.15826429635286332
aF0.4346798360347748
aF1.460657000541687
aF-0.10623437911272049
aF0.5849809050559998
aa(lp19
F0.2024867502128756
aF-0.15576429635286332
aF0.4346798360347748
aF1.460657000541687
aF-0.10623437911272049
aF0.5849809050559998
aa(lp20
F0.20637864210476747
aF-0.1502642963528633
aF0.4346798360347748
aF1.460657000541687
aF-0.10623437911272049
aF0.5849809050559998
aa(lp21
F0.2081083718344972
aF-0.1450142963528633
aF0.4346798360347748
aF1.460657000541687
aF-0.10623437911272049
aF0.5849809050559998
aa(lp22
F0.2096218853480107
aF-0.1397642963528633
aF0.4346798360347748
aF1.460657000541687
aF-0.10623437911272049
aF0.5849809050559998
aa(lp23
F0.2107029664290918
aF-0.1347642963528633
aF0.4346798360347748
aF1.460657000541687
aF-0.10623437911272049
aF0.5849809050559998
aa(lp24
F0.21135161507774045
aF-0.1282642963528633
aF0.4346798360347748
aF1.460657000541687
aF-0.10623437911272049
aF0.5849809050559998
aa(lp25
F0.21178404751017288
aF-0.12151429635286332
aF0.4346798360347748
aF1.460657000541687
aF-0.10623437911272049
aF0.5849809050559998
aa(lp26
F0.21156783129395668
aF-0.11701429635286331
aF0.4346798360347748
aF1.460657000541687
aF-0.10623437911272049
aF0.5849809050559998
aa(lp27
F0.210919182645308
aF-0.11226429635286331
aF0.4346798360347748
aF1.460657000541687
aF-0.10623437911272049
aF0.5849809050559998
aa(lp28
F0.20875702048314584
aF-0.1085142963528633
aF0.4346798360347748
aF1.460657000541687
aF-0.10623437911272049
aF0.5849809050559998
aa(lp29
F0.20464891237503774
aF-0.1092642963528633
aF0.4346798360347748
aF1.460657000541687
aF-0.10623437911272049
aF0.5849809050559998
aa(lp30
F0.19945972318584854
aF-0.1100142963528633
aF0.4346798360347748
aF1.460657000541687
aF-0.10623437911272049
aF0.5849809050559998
aa(lp31
F0.1947029664290918
aF-0.1105142963528633
aF0.4346798360347748
aF1.460657000541687
aF-0.10623437911272049
aF0.5849809050559998
aa(lp32
F0.18691918264530802
aF-0.1110142963528633
aF0.4346798360347748
aF1.460657000541687
aF-0.10623437911272049
aF0.5849809050559998
aa(lp33
F0.1802164799426053
aF-0.11176429635286331
aF0.4346798360347748
aF1.460657000541687
aF-0.10623437911272049
aF0.5849809050559998
aa(lp34
F0.17589215561828098
aF-0.11276429635286331
aF0.4346798360347748
aF1.460657000541687
aF-0.10623437911272049
aF0.5849809050559998
aa(lp35
F0.17113539886152423
aF-0.11326429635286331
aF0.4346798360347748
aF1.460657000541687
aF-0.10623437911272049
aF0.5849809050559998
aa(lp36
F0.1668110745371999
aF-0.11426429635286331
aF0.4346798360347748
aF1.460657000541687
aF-0.10623437911272049
aF0.5849809050559998
aa(lp37
F0.162919182645308
aF-0.11526429635286331
aF0.4346798360347748
aF1.460657000541687
aF-0.10623437911272049
aF0.5849809050559998
aa.